target datalayout = "e-m:e-p270:32:32-p271:32:32-p272:64:64-i64:64-i128:128-f80:128-n8:16:32:64-S128"
target triple = "x86_64-pc-linux-gnu"

%struct.__loadu_si128 = type { <2 x i64> }
%struct.__storeu_si128 = type { <2 x i64> }

; Function Attrs: alwaysinline nounwind uwtable
define internal void @_mm_storeu_si128(ptr noundef %0, <2 x i64> noundef %1) #5 {
  %3 = alloca ptr, align 8
  %4 = alloca <2 x i64>, align 16
  store ptr %0, ptr %3, align 8, !tbaa !15
  store <2 x i64> %1, ptr %4, align 16, !tbaa !10
  %5 = load <2 x i64>, ptr %4, align 16, !tbaa !10
  %6 = load ptr, ptr %3, align 8, !tbaa !15
  %7 = getelementptr inbounds nuw %struct.__storeu_si128, ptr %6, i32 0, i32 0
  store <2 x i64> %5, ptr %7, align 1, !tbaa !10
  ret void
}

; Function Attrs: alwaysinline nounwind uwtable
define internal <2 x i64> @_mm_unpackhi_epi8(<2 x i64> noundef %0, <2 x i64> noundef %1) #5 {
  %3 = alloca <2 x i64>, align 16
  %4 = alloca <2 x i64>, align 16
  store <2 x i64> %0, ptr %3, align 16, !tbaa !10
  store <2 x i64> %1, ptr %4, align 16, !tbaa !10
  %5 = load <2 x i64>, ptr %3, align 16, !tbaa !10
  %6 = bitcast <2 x i64> %5 to <16 x i8>
  %7 = load <2 x i64>, ptr %4, align 16, !tbaa !10
  %8 = bitcast <2 x i64> %7 to <16 x i8>
  %9 = shufflevector <16 x i8> %6, <16 x i8> %8, <16 x i32> <i32 8, i32 24, i32 9, i32 25, i32 10, i32 26, i32 11, i32 27, i32 12, i32 28, i32 13, i32 29, i32 14, i32 30, i32 15, i32 31>
  %10 = bitcast <16 x i8> %9 to <2 x i64>
  ret <2 x i64> %10
}

; Function Attrs: alwaysinline nounwind uwtable
define internal <2 x i64> @_mm_unpacklo_epi8(<2 x i64> noundef %0, <2 x i64> noundef %1) #5 {
  %3 = alloca <2 x i64>, align 16
  %4 = alloca <2 x i64>, align 16
  store <2 x i64> %0, ptr %3, align 16, !tbaa !10
  store <2 x i64> %1, ptr %4, align 16, !tbaa !10
  %5 = load <2 x i64>, ptr %3, align 16, !tbaa !10
  %6 = bitcast <2 x i64> %5 to <16 x i8>
  %7 = load <2 x i64>, ptr %4, align 16, !tbaa !10
  %8 = bitcast <2 x i64> %7 to <16 x i8>
  %9 = shufflevector <16 x i8> %6, <16 x i8> %8, <16 x i32> <i32 0, i32 16, i32 1, i32 17, i32 2, i32 18, i32 3, i32 19, i32 4, i32 20, i32 5, i32 21, i32 6, i32 22, i32 7, i32 23>
  %10 = bitcast <16 x i8> %9 to <2 x i64>
  ret <2 x i64> %10
}

; Function Attrs: alwaysinline nounwind uwtable
define internal <2 x i64> @_mm_loadu_si128(ptr noundef %0) #5 {
  %2 = alloca ptr, align 8
  store ptr %0, ptr %2, align 8, !tbaa !15
  %3 = load ptr, ptr %2, align 8, !tbaa !15
  %4 = getelementptr inbounds nuw %struct.__loadu_si128, ptr %3, i32 0, i32 0
  %5 = load <2 x i64>, ptr %4, align 1, !tbaa !10
  ret <2 x i64> %5
}

; Function Attrs: nounwind uwtable
define internal void @interleave(ptr noundef %0, ptr noundef %1, i64 noundef %2) #1 {
  %4 = alloca ptr, align 8
  %5 = alloca ptr, align 8
  %6 = alloca i64, align 8
  %7 = alloca i64, align 8
  %8 = alloca ptr, align 8
  %9 = alloca ptr, align 8
  %10 = alloca ptr, align 8
  %11 = alloca ptr, align 8
  %12 = alloca ptr, align 8
  %13 = alloca ptr, align 8
  %14 = alloca i64, align 8
  %15 = alloca <2 x i64>, align 16
  %16 = alloca <2 x i64>, align 16
  %17 = alloca <2 x i64>, align 16
  %18 = alloca <2 x i64>, align 16
  %19 = alloca i64, align 8
  store ptr %0, ptr %4, align 8, !tbaa !3
  store ptr %1, ptr %5, align 8, !tbaa !3
  store i64 %2, ptr %6, align 8, !tbaa !8
  call void @llvm.lifetime.start.p0(i64 8, ptr %7) #6
  %20 = load i64, ptr %6, align 8, !tbaa !8
  %21 = udiv i64 %20, 32
  store i64 %21, ptr %7, align 8, !tbaa !8
  call void @llvm.lifetime.start.p0(i64 8, ptr %8) #6
  %22 = load ptr, ptr %5, align 8, !tbaa !3
  store ptr %22, ptr %8, align 8, !tbaa !15
  call void @llvm.lifetime.start.p0(i64 8, ptr %9) #6
  %23 = load ptr, ptr %5, align 8, !tbaa !3
  %24 = load i64, ptr %6, align 8, !tbaa !8
  %25 = add i64 %24, 1
  %26 = udiv i64 %25, 2
  %27 = getelementptr inbounds nuw i8, ptr %23, i64 %26
  store ptr %27, ptr %9, align 8, !tbaa !15
  call void @llvm.lifetime.start.p0(i64 8, ptr %10) #6
  %28 = load ptr, ptr %4, align 8, !tbaa !3
  store ptr %28, ptr %10, align 8, !tbaa !15
  call void @llvm.lifetime.start.p0(i64 8, ptr %11) #6
  call void @llvm.lifetime.start.p0(i64 8, ptr %12) #6
  call void @llvm.lifetime.start.p0(i64 8, ptr %13) #6
  call void @llvm.lifetime.start.p0(i64 8, ptr %14) #6
  store i64 0, ptr %14, align 8, !tbaa !8
  br label %29

29:                                               ; preds = %53, %3
  %30 = load i64, ptr %14, align 8, !tbaa !8
  %31 = load i64, ptr %7, align 8, !tbaa !8
  %32 = icmp ult i64 %30, %31
  br i1 %32, label %34, label %33

33:                                               ; preds = %29
  call void @llvm.lifetime.end.p0(i64 8, ptr %14) #6
  br label %56

34:                                               ; preds = %29
  call void @llvm.lifetime.start.p0(i64 16, ptr %15) #6
  %35 = load ptr, ptr %8, align 8, !tbaa !15
  %36 = getelementptr inbounds nuw <2 x i64>, ptr %35, i32 1
  store ptr %36, ptr %8, align 8, !tbaa !15
  %37 = call <2 x i64> @_mm_loadu_si128(ptr noundef %35)
  store <2 x i64> %37, ptr %15, align 16, !tbaa !10
  call void @llvm.lifetime.start.p0(i64 16, ptr %16) #6
  %38 = load ptr, ptr %9, align 8, !tbaa !15
  %39 = getelementptr inbounds nuw <2 x i64>, ptr %38, i32 1
  store ptr %39, ptr %9, align 8, !tbaa !15
  %40 = call <2 x i64> @_mm_loadu_si128(ptr noundef %38)
  store <2 x i64> %40, ptr %16, align 16, !tbaa !10
  call void @llvm.lifetime.start.p0(i64 16, ptr %17) #6
  %41 = load <2 x i64>, ptr %15, align 16, !tbaa !10
  %42 = load <2 x i64>, ptr %16, align 16, !tbaa !10
  %43 = call <2 x i64> @_mm_unpacklo_epi8(<2 x i64> noundef %41, <2 x i64> noundef %42)
  store <2 x i64> %43, ptr %17, align 16, !tbaa !10
  call void @llvm.lifetime.start.p0(i64 16, ptr %18) #6
  %44 = load <2 x i64>, ptr %15, align 16, !tbaa !10
  %45 = load <2 x i64>, ptr %16, align 16, !tbaa !10
  %46 = call <2 x i64> @_mm_unpackhi_epi8(<2 x i64> noundef %44, <2 x i64> noundef %45)
  store <2 x i64> %46, ptr %18, align 16, !tbaa !10
  %47 = load ptr, ptr %10, align 8, !tbaa !15
  %48 = getelementptr inbounds nuw <2 x i64>, ptr %47, i32 1
  store ptr %48, ptr %10, align 8, !tbaa !15
  %49 = load <2 x i64>, ptr %17, align 16, !tbaa !10
  call void @_mm_storeu_si128(ptr noundef %47, <2 x i64> noundef %49)
  %50 = load ptr, ptr %10, align 8, !tbaa !15
  %51 = getelementptr inbounds nuw <2 x i64>, ptr %50, i32 1
  store ptr %51, ptr %10, align 8, !tbaa !15
  %52 = load <2 x i64>, ptr %18, align 16, !tbaa !10
  call void @_mm_storeu_si128(ptr noundef %50, <2 x i64> noundef %52)
  call void @llvm.lifetime.end.p0(i64 16, ptr %18) #6
  call void @llvm.lifetime.end.p0(i64 16, ptr %17) #6
  call void @llvm.lifetime.end.p0(i64 16, ptr %16) #6
  call void @llvm.lifetime.end.p0(i64 16, ptr %15) #6
  br label %53

53:                                               ; preds = %34
  %54 = load i64, ptr %14, align 8, !tbaa !8
  %55 = add i64 %54, 1
  store i64 %55, ptr %14, align 8, !tbaa !8
  br label %29, !llvm.loop !16

56:                                               ; preds = %33
  %57 = load ptr, ptr %8, align 8, !tbaa !15
  store ptr %57, ptr %11, align 8, !tbaa !3
  %58 = load ptr, ptr %9, align 8, !tbaa !15
  store ptr %58, ptr %12, align 8, !tbaa !3
  %59 = load ptr, ptr %10, align 8, !tbaa !15
  store ptr %59, ptr %13, align 8, !tbaa !3
  call void @llvm.lifetime.start.p0(i64 8, ptr %19) #6
  %60 = load i64, ptr %7, align 8, !tbaa !8
  %61 = mul i64 %60, 32
  store i64 %61, ptr %19, align 8, !tbaa !8
  br label %62

62:                                               ; preds = %86, %56
  %63 = load i64, ptr %19, align 8, !tbaa !8
  %64 = load i64, ptr %6, align 8, !tbaa !8
  %65 = icmp ult i64 %63, %64
  br i1 %65, label %67, label %66

66:                                               ; preds = %62
  call void @llvm.lifetime.end.p0(i64 8, ptr %19) #6
  br label %89

67:                                               ; preds = %62
  %68 = load i64, ptr %19, align 8, !tbaa !8
  %69 = urem i64 %68, 2
  %70 = icmp eq i64 %69, 0
  br i1 %70, label %71, label %76

71:                                               ; preds = %67
  %72 = load ptr, ptr %11, align 8, !tbaa !3
  %73 = getelementptr inbounds nuw i8, ptr %72, i32 1
  store ptr %73, ptr %11, align 8, !tbaa !3
  %74 = load i8, ptr %72, align 1, !tbaa !10
  %75 = zext i8 %74 to i32
  br label %81

76:                                               ; preds = %67
  %77 = load ptr, ptr %12, align 8, !tbaa !3
  %78 = getelementptr inbounds nuw i8, ptr %77, i32 1
  store ptr %78, ptr %12, align 8, !tbaa !3
  %79 = load i8, ptr %77, align 1, !tbaa !10
  %80 = zext i8 %79 to i32
  br label %81

81:                                               ; preds = %76, %71
  %82 = phi i32 [ %75, %71 ], [ %80, %76 ]
  %83 = trunc i32 %82 to i8
  %84 = load ptr, ptr %13, align 8, !tbaa !3
  %85 = getelementptr inbounds nuw i8, ptr %84, i32 1
  store ptr %85, ptr %13, align 8, !tbaa !3
  store i8 %83, ptr %84, align 1, !tbaa !10
  br label %86

86:                                               ; preds = %81
  %87 = load i64, ptr %19, align 8, !tbaa !8
  %88 = add i64 %87, 1
  store i64 %88, ptr %19, align 8, !tbaa !8
  br label %62, !llvm.loop !17

89:                                               ; preds = %66
  call void @llvm.lifetime.end.p0(i64 8, ptr %13) #6
  call void @llvm.lifetime.end.p0(i64 8, ptr %12) #6
  call void @llvm.lifetime.end.p0(i64 8, ptr %11) #6
  call void @llvm.lifetime.end.p0(i64 8, ptr %10) #6
  call void @llvm.lifetime.end.p0(i64 8, ptr %9) #6
  call void @llvm.lifetime.end.p0(i64 8, ptr %8) #6
  call void @llvm.lifetime.end.p0(i64 8, ptr %7) #6
  ret void
}

; Function Attrs: nounwind uwtable
define internal void @reconstruct(ptr noundef %0, i64 noundef %1) #0 {
  %3 = alloca ptr, align 8
  %4 = alloca i64, align 8
  %5 = alloca ptr, align 8
  %6 = alloca ptr, align 8
  %7 = alloca i32, align 4
  store ptr %0, ptr %3, align 8, !tbaa !3
  store i64 %1, ptr %4, align 8, !tbaa !8
  call void @llvm.lifetime.start.p0(i64 8, ptr %5) #6
  %8 = load ptr, ptr %3, align 8, !tbaa !3
  %9 = getelementptr inbounds i8, ptr %8, i64 1
  store ptr %9, ptr %5, align 8, !tbaa !3
  call void @llvm.lifetime.start.p0(i64 8, ptr %6) #6
  %10 = load ptr, ptr %3, align 8, !tbaa !3
  %11 = load i64, ptr %4, align 8, !tbaa !8
  %12 = getelementptr inbounds nuw i8, ptr %10, i64 %11
  store ptr %12, ptr %6, align 8, !tbaa !3
  br label %13

13:                                               ; preds = %17, %2
  %14 = load ptr, ptr %5, align 8, !tbaa !3
  %15 = load ptr, ptr %6, align 8, !tbaa !3
  %16 = icmp ult ptr %14, %15
  br i1 %16, label %17, label %34

17:                                               ; preds = %13
  call void @llvm.lifetime.start.p0(i64 4, ptr %7) #6
  %18 = load ptr, ptr %5, align 8, !tbaa !3
  %19 = getelementptr inbounds i8, ptr %18, i64 -1
  %20 = load i8, ptr %19, align 1, !tbaa !10
  %21 = zext i8 %20 to i32
  %22 = load ptr, ptr %5, align 8, !tbaa !3
  %23 = getelementptr inbounds i8, ptr %22, i64 0
  %24 = load i8, ptr %23, align 1, !tbaa !10
  %25 = zext i8 %24 to i32
  %26 = add nsw i32 %21, %25
  %27 = sub nsw i32 %26, 128
  store i32 %27, ptr %7, align 4, !tbaa !11
  %28 = load i32, ptr %7, align 4, !tbaa !11
  %29 = trunc i32 %28 to i8
  %30 = load ptr, ptr %5, align 8, !tbaa !3
  %31 = getelementptr inbounds i8, ptr %30, i64 0
  store i8 %29, ptr %31, align 1, !tbaa !10
  %32 = load ptr, ptr %5, align 8, !tbaa !3
  %33 = getelementptr inbounds nuw i8, ptr %32, i32 1
  store ptr %33, ptr %5, align 8, !tbaa !3
  call void @llvm.lifetime.end.p0(i64 4, ptr %7) #6
  br label %13, !llvm.loop !13

34:                                               ; preds = %13
  call void @llvm.lifetime.end.p0(i64 8, ptr %6) #6
  call void @llvm.lifetime.end.p0(i64 8, ptr %5) #6
  ret void
}

; Function Attrs: nounwind uwtable
define hidden void @internal_zip_reconstruct_bytes(ptr noundef %0, ptr noundef %1, i64 noundef %2) #0 {
  %4 = alloca ptr, align 8
  %5 = alloca ptr, align 8
  %6 = alloca i64, align 8
  store ptr %0, ptr %4, align 8, !tbaa !3
  store ptr %1, ptr %5, align 8, !tbaa !3
  store i64 %2, ptr %6, align 8, !tbaa !8
  %7 = load ptr, ptr %5, align 8, !tbaa !3
  %8 = load i64, ptr %6, align 8, !tbaa !8
  call void @reconstruct(ptr noundef %7, i64 noundef %8)
  %9 = load ptr, ptr %4, align 8, !tbaa !3
  %10 = load ptr, ptr %5, align 8, !tbaa !3
  %11 = load i64, ptr %6, align 8, !tbaa !8
  call void @interleave(ptr noundef %9, ptr noundef %10, i64 noundef %11)
  ret void
}