; Function Attrs: nofree norecurse nosync nounwind memory(read, argmem: readwrite, inaccessiblemem: none) uwtable
define hidden void @internal_zip_reconstruct_bytes(ptr noundef writeonly captures(none) %0, ptr noundef %1, i64 noundef %2) local_unnamed_addr #0 {
  %4 = getelementptr inbounds nuw i8, ptr %1, i64 %2
  %5 = icmp samesign ugt i64 %2, 1
  br i1 %5, label %.lr.ph.preheader.i, label %._crit_edge.i

.lr.ph.preheader.i:                               ; preds = %3
  %.09.i = getelementptr inbounds nuw i8, ptr %1, i64 1
  %.pre.i = load i8, ptr %1, align 1, !tbaa !3
  br label %.lr.ph.i

.lr.ph.i:                                         ; preds = %.lr.ph.i, %.lr.ph.preheader.i
  %6 = phi i8 [ %9, %.lr.ph.i ], [ %.pre.i, %.lr.ph.preheader.i ]
  %.011.i = phi ptr [ %.0.i, %.lr.ph.i ], [ %.09.i, %.lr.ph.preheader.i ]
  %7 = load i8, ptr %.011.i, align 1, !tbaa !3
  %8 = add i8 %7, %6
  %9 = xor i8 %8, -128
  store i8 %9, ptr %.011.i, align 1, !tbaa !3
  %.0.i = getelementptr inbounds nuw i8, ptr %.011.i, i64 1
  %10 = icmp ult ptr %.0.i, %4
  br i1 %10, label %.lr.ph.i, label %reconstruct.exit, !llvm.loop !6

reconstruct.exit:                                 ; preds = %.lr.ph.i
  %11 = lshr i64 %2, 5
  %12 = add i64 %2, 1
  %13 = lshr i64 %12, 1
  %14 = getelementptr inbounds nuw i8, ptr %1, i64 %13
  %.not51.i = icmp ult i64 %2, 32
  br i1 %.not51.i, label %._crit_edge.i, label %.lr.ph.i4

._crit_edge.i:                                    ; preds = %.lr.ph.i4, %3, %reconstruct.exit
  %.030.lcssa.i = phi ptr [ %0, %reconstruct.exit ], [ %0, %3 ], [ %23, %.lr.ph.i4 ]
  %.029.lcssa.i = phi ptr [ %14, %reconstruct.exit ], [ %4, %3 ], [ %18, %.lr.ph.i4 ]
  %.028.lcssa.i = phi ptr [ %1, %reconstruct.exit ], [ %1, %3 ], [ %16, %.lr.ph.i4 ]
  %15 = and i64 %2, -32
  %.not52.i = icmp eq i64 %15, %2
  br i1 %.not52.i, label %interleave.exit, label %.lr.ph49.i

.lr.ph.i4:                                        ; preds = %reconstruct.exit, %.lr.ph.i4
  %.02841.i = phi ptr [ %16, %.lr.ph.i4 ], [ %1, %reconstruct.exit ]
  %.02940.i = phi ptr [ %18, %.lr.ph.i4 ], [ %14, %reconstruct.exit ]
  %.03039.i = phi ptr [ %23, %.lr.ph.i4 ], [ %0, %reconstruct.exit ]
  %.03238.i = phi i64 [ %24, %.lr.ph.i4 ], [ 0, %reconstruct.exit ]
  %16 = getelementptr inbounds nuw i8, ptr %.02841.i, i64 16
  %17 = load <16 x i8>, ptr %.02841.i, align 1, !tbaa !3
  %18 = getelementptr inbounds nuw i8, ptr %.02940.i, i64 16
  %19 = load <16 x i8>, ptr %.02940.i, align 1, !tbaa !3
  %20 = shufflevector <16 x i8> %17, <16 x i8> %19, <16 x i32> <i32 0, i32 16, i32 1, i32 17, i32 2, i32 18, i32 3, i32 19, i32 4, i32 20, i32 5, i32 21, i32 6, i32 22, i32 7, i32 23>
  %21 = shufflevector <16 x i8> %17, <16 x i8> %19, <16 x i32> <i32 8, i32 24, i32 9, i32 25, i32 10, i32 26, i32 11, i32 27, i32 12, i32 28, i32 13, i32 29, i32 14, i32 30, i32 15, i32 31>
  %22 = getelementptr inbounds nuw i8, ptr %.03039.i, i64 16
  store <16 x i8> %20, ptr %.03039.i, align 1, !tbaa !3
  %23 = getelementptr inbounds nuw i8, ptr %.03039.i, i64 32
  store <16 x i8> %21, ptr %22, align 1, !tbaa !3
  %24 = add nuw nsw i64 %.03238.i, 1
  %exitcond.not.i = icmp eq i64 %24, %11
  br i1 %exitcond.not.i, label %._crit_edge.i, label %.lr.ph.i4, !llvm.loop !8

.lr.ph49.i:                                       ; preds = %._crit_edge.i, %.lr.ph49.i
  %.047.i = phi i64 [ %27, %.lr.ph49.i ], [ %15, %._crit_edge.i ]
  %.03146.i = phi ptr [ %.1.i, %.lr.ph49.i ], [ %.028.lcssa.i, %._crit_edge.i ]
  %.03345.i = phi ptr [ %26, %.lr.ph49.i ], [ %.030.lcssa.i, %._crit_edge.i ]
  %.03444.i = phi ptr [ %.135.i, %.lr.ph49.i ], [ %.029.lcssa.i, %._crit_edge.i ]
  %25 = and i64 %.047.i, 1
  %.not.i = icmp eq i64 %25, 0
  %.135.i = getelementptr inbounds nuw i8, ptr %.03444.i, i64 %25
  %.1.idx.i = xor i64 %25, 1
  %.1.i = getelementptr inbounds nuw i8, ptr %.03146.i, i64 %.1.idx.i
  %.in.in.i = select i1 %.not.i, ptr %.03146.i, ptr %.03444.i
  %.in37.i = load i8, ptr %.in.in.i, align 1, !tbaa !3
  %26 = getelementptr inbounds nuw i8, ptr %.03345.i, i64 1
  store i8 %.in37.i, ptr %.03345.i, align 1, !tbaa !3
  %27 = add nuw i64 %.047.i, 1
  %28 = icmp ult i64 %27, %2
  br i1 %28, label %.lr.ph49.i, label %interleave.exit, !llvm.loop !9

interleave.exit:                                  ; preds = %.lr.ph49.i, %._crit_edge.i
  ret void
}